target datalayout = "e-m:e-p270:32:32-p271:32:32-p272:64:64-i64:64-i128:128-f80:128-n8:16:32:64-S128"
target triple = "x86_64-pc-linux-gnu"

%class.LogTagSet = type { ptr, i64, [5 x i32], [4 x i8], %class.LogOutputList, %class.LogDecorators, ptr }
%class.LogOutputList = type <{ [6 x ptr], i32, [4 x i8] }>
%class.LogDecorators = type { i32 }
%class.JfrSamplerWindow = type { %struct.JfrSamplerParams, i64, i64, i64, i64 }
%struct.JfrSamplerParams = type { i64, i64, i64, i8 }
%class.JfrPRNG = type { i64 }
%"struct.Atomic::LoadImpl.5" = type { i8 }
%class.JfrGTestFixedRateSampler = type { %class.JfrAdaptiveSampler.base, %struct.JfrSamplerParams, double }
%class.JfrAdaptiveSampler.base = type <{ ptr, %class.JfrPRNG, ptr, ptr, ptr, double, double, i64, i64, i32 }>
%"struct.Atomic::PlatformLoad" = type { i8 }

@_ZN16LogTagSetMappingILN6LogTag4typeE64ELS1_156ELS1_160ELS1_0ELS1_0ELS1_0EE7_tagsetE = linkonce_odr hidden global %class.LogTagSet zeroinitializer, comdat, align 8
@.str = private unnamed_addr constant [151 x i8] c"JfrGTestFixedRateSampler: avg.sample size: %0.4f, window set point: %zu, sample size: %zu, population size: %zu, ratio: %.4f, window duration: %zu ms\0A\00", align 1

; Function Attrs: mustprogress nounwind uwtable
define linkonce_odr hidden noundef i64 @_ZNK6Atomic12PlatformLoadILm8EEclImEET_PVKS3_(ptr noundef nonnull align 1 dereferenceable(1) %0, ptr noundef %1) #1 comdat align 2 {
  %3 = alloca ptr, align 8
  %4 = alloca ptr, align 8
  store ptr %0, ptr %3, align 8
  store ptr %1, ptr %4, align 8
  %5 = load ptr, ptr %4, align 8
  %6 = load volatile i64, ptr %5, align 8
  ret i64 %6
}

; Function Attrs: mustprogress nounwind uwtable
define linkonce_odr hidden noundef i64 @_ZNK6Atomic8LoadImplImNS_12PlatformLoadILm8EEEvEclEPVKm(ptr noundef nonnull align 1 dereferenceable(1) %0, ptr noundef %1) #1 comdat align 2 {
  %3 = alloca ptr, align 8
  %4 = alloca ptr, align 8
  %5 = alloca %"struct.Atomic::PlatformLoad", align 1
  store ptr %0, ptr %3, align 8
  store ptr %1, ptr %4, align 8
  %6 = load ptr, ptr %4, align 8
  %7 = call noundef i64 @_ZNK6Atomic12PlatformLoadILm8EEclImEET_PVKS3_(ptr noundef nonnull align 1 dereferenceable(1) %5, ptr noundef %6)
  ret i64 %7
}

; Function Attrs: mustprogress nounwind uwtable
define linkonce_odr hidden noundef zeroext i1 @_ZNK13LogOutputList8is_levelEN8LogLevel4typeE(ptr noundef nonnull align 8 dereferenceable(52) %0, i32 noundef %1) #1 comdat align 2 {
  %3 = alloca ptr, align 8
  %4 = alloca i32, align 4
  store ptr %0, ptr %3, align 8
  store i32 %1, ptr %4, align 4
  %5 = load ptr, ptr %3, align 8
  %6 = getelementptr inbounds %class.LogOutputList, ptr %5, i32 0, i32 0
  %7 = load i32, ptr %4, align 4
  %8 = zext i32 %7 to i64
  %9 = getelementptr inbounds [6 x ptr], ptr %6, i64 0, i64 %8
  %10 = load volatile ptr, ptr %9, align 8
  %11 = icmp ne ptr %10, null
  ret i1 %11
}

; Function Attrs: mustprogress nounwind uwtable
define linkonce_odr hidden noundef i64 @_ZN6Atomic4loadImEET_PVKS1_(ptr noundef %0) #1 comdat align 2 {
  %2 = alloca ptr, align 8
  %3 = alloca %"struct.Atomic::LoadImpl.5", align 1
  store ptr %0, ptr %2, align 8
  %4 = load ptr, ptr %2, align 8
  %5 = call noundef i64 @_ZNK6Atomic8LoadImplImNS_12PlatformLoadILm8EEEvEclEPVKm(ptr noundef nonnull align 1 dereferenceable(1) %3, ptr noundef %4)
  ret i64 %5
}

; Function Attrs: mustprogress nounwind uwtable
define linkonce_odr hidden noundef i64 @_ZNK16JfrSamplerWindow15max_sample_sizeEv(ptr noundef nonnull align 8 dereferenceable(64) %0) #1 comdat align 2 {
  %2 = alloca ptr, align 8
  store ptr %0, ptr %2, align 8
  %3 = load ptr, ptr %2, align 8
  %4 = getelementptr inbounds %class.JfrSamplerWindow, ptr %3, i32 0, i32 3
  %5 = load i64, ptr %4, align 8
  %6 = getelementptr inbounds %class.JfrSamplerWindow, ptr %3, i32 0, i32 2
  %7 = load i64, ptr %6, align 8
  %8 = udiv i64 %5, %7
  ret i64 %8
}

; Function Attrs: mustprogress nounwind uwtable
define linkonce_odr hidden noundef zeroext i1 @_ZNK9LogTagSet8is_levelEN8LogLevel4typeE(ptr noundef nonnull align 8 dereferenceable(112) %0, i32 noundef %1) #1 comdat align 2 {
  %3 = alloca ptr, align 8
  %4 = alloca i32, align 4
  store ptr %0, ptr %3, align 8
  store i32 %1, ptr %4, align 4
  %5 = load ptr, ptr %3, align 8
  %6 = getelementptr inbounds %class.LogTagSet, ptr %5, i32 0, i32 4
  %7 = load i32, ptr %4, align 4
  %8 = call noundef zeroext i1 @_ZNK13LogOutputList8is_levelEN8LogLevel4typeE(ptr noundef nonnull align 8 dereferenceable(52) %6, i32 noundef %7)
  ret i1 %8
}

; Function Attrs: mustprogress nounwind uwtable
define linkonce_odr hidden noundef nonnull align 8 dereferenceable(112) ptr @_ZN16LogTagSetMappingILN6LogTag4typeE64ELS1_156ELS1_160ELS1_0ELS1_0ELS1_0EE6tagsetEv() #1 comdat align 2 {
  ret ptr @_ZN16LogTagSetMappingILN6LogTag4typeE64ELS1_156ELS1_160ELS1_0ELS1_0ELS1_0EE7_tagsetE
}

; Function Attrs: mustprogress nounwind uwtable
define hidden noundef i64 @_ZNK16JfrSamplerWindow15population_sizeEv(ptr noundef nonnull align 8 dereferenceable(64) %0) #1 align 2 {
  %2 = alloca ptr, align 8
  store ptr %0, ptr %2, align 8
  %3 = load ptr, ptr %2, align 8
  %4 = getelementptr inbounds %class.JfrSamplerWindow, ptr %3, i32 0, i32 4
  %5 = call noundef i64 @_ZN6Atomic4loadImEET_PVKS1_(ptr noundef %4)
  ret i64 %5
}

; Function Attrs: mustprogress nounwind uwtable
define linkonce_odr hidden noundef double @_Z37exponentially_weighted_moving_averageddd(double noundef %0, double noundef %1, double noundef %2) #1 comdat {
  %4 = alloca double, align 8
  %5 = alloca double, align 8
  %6 = alloca double, align 8
  store double %0, ptr %4, align 8
  store double %1, ptr %5, align 8
  store double %2, ptr %6, align 8
  %7 = load double, ptr %5, align 8
  %8 = load double, ptr %4, align 8
  %9 = load double, ptr %5, align 8
  %10 = fsub double 1.000000e+00, %9
  %11 = load double, ptr %6, align 8
  %12 = fmul double %10, %11
  %13 = call double @llvm.fmuladd.f64(double %7, double %8, double %12)
  ret double %13
}

; Function Attrs: mustprogress nounwind uwtable
define linkonce_odr hidden noundef double @_Z30compute_ewma_alpha_coefficientm(i64 noundef %0) #1 comdat {
  %2 = alloca i64, align 8
  store i64 %0, ptr %2, align 8
  %3 = load i64, ptr %2, align 8
  %4 = icmp ule i64 %3, 1
  br i1 %4, label %5, label %6

5:                                                ; preds = %1
  br label %10

6:                                                ; preds = %1
  %7 = load i64, ptr %2, align 8
  %8 = uitofp i64 %7 to double
  %9 = fdiv double 1.000000e+00, %8
  br label %10

10:                                               ; preds = %6, %5
  %11 = phi double [ 1.000000e+00, %5 ], [ %9, %6 ]
  ret double %11
}

; Function Attrs: mustprogress nounwind uwtable
define linkonce_odr hidden noundef nonnull align 8 dereferenceable(32) ptr @_ZNK16JfrSamplerWindow6paramsEv(ptr noundef nonnull align 8 dereferenceable(64) %0) #1 comdat align 2 {
  %2 = alloca ptr, align 8
  store ptr %0, ptr %2, align 8
  %3 = load ptr, ptr %2, align 8
  %4 = getelementptr inbounds %class.JfrSamplerWindow, ptr %3, i32 0, i32 0
  ret ptr %4
}

; Function Attrs: mustprogress nounwind uwtable
define hidden noundef i64 @_ZNK16JfrSamplerWindow11sample_sizeEv(ptr noundef nonnull align 8 dereferenceable(64) %0) #1 align 2 {
  %2 = alloca ptr, align 8
  %3 = alloca i64, align 8
  store ptr %0, ptr %2, align 8
  %4 = load ptr, ptr %2, align 8
  %5 = call noundef i64 @_ZNK16JfrSamplerWindow15population_sizeEv(ptr noundef nonnull align 8 dereferenceable(64) %4)
  store i64 %5, ptr %3, align 8
  %6 = load i64, ptr %3, align 8
  %7 = getelementptr inbounds %class.JfrSamplerWindow, ptr %4, i32 0, i32 3
  %8 = load i64, ptr %7, align 8
  %9 = icmp ugt i64 %6, %8
  br i1 %9, label %10, label %12

10:                                               ; preds = %1
  %11 = call noundef i64 @_ZNK16JfrSamplerWindow15max_sample_sizeEv(ptr noundef nonnull align 8 dereferenceable(64) %4)
  br label %17

12:                                               ; preds = %1
  %13 = load i64, ptr %3, align 8
  %14 = getelementptr inbounds %class.JfrSamplerWindow, ptr %4, i32 0, i32 2
  %15 = load i64, ptr %14, align 8
  %16 = udiv i64 %13, %15
  br label %17

17:                                               ; preds = %12, %10
  %18 = phi i64 [ %11, %10 ], [ %16, %12 ]
  ret i64 %18
}

; Function Attrs: mustprogress nounwind uwtable
define linkonce_odr hidden noundef zeroext i1 @_ZN7LogImplILN6LogTag4typeE64ELS1_156ELS1_160ELS1_0ELS1_0ELS1_0EE8is_levelEN8LogLevel4typeE(i32 noundef %0) #1 comdat align 2 {
  %2 = alloca i32, align 4
  store i32 %0, ptr %2, align 4
  %3 = call noundef nonnull align 8 dereferenceable(112) ptr @_ZN16LogTagSetMappingILN6LogTag4typeE64ELS1_156ELS1_160ELS1_0ELS1_0ELS1_0EE6tagsetEv()
  %4 = load i32, ptr %2, align 4
  %5 = call noundef zeroext i1 @_ZNK9LogTagSet8is_levelEN8LogLevel4typeE(ptr noundef nonnull align 8 dereferenceable(112) %3, i32 noundef %4)
  ret i1 %5
}

; Function Attrs: mustprogress nounwind uwtable
define internal void @_ZL3logPK16JfrSamplerWindowPd(ptr noundef %0, ptr noundef %1) #1 {
  %3 = alloca ptr, align 8
  %4 = alloca ptr, align 8
  store ptr %0, ptr %3, align 8
  store ptr %1, ptr %4, align 8
  %5 = call noundef zeroext i1 @_ZN7LogImplILN6LogTag4typeE64ELS1_156ELS1_160ELS1_0ELS1_0ELS1_0EE8is_levelEN8LogLevel4typeE(i32 noundef 2)
  br i1 %5, label %6, label %51

6:                                                ; preds = %2
  %7 = load ptr, ptr %3, align 8
  %8 = call noundef i64 @_ZNK16JfrSamplerWindow11sample_sizeEv(ptr noundef nonnull align 8 dereferenceable(64) %7)
  %9 = uitofp i64 %8 to double
  %10 = load ptr, ptr %3, align 8
  %11 = call noundef nonnull align 8 dereferenceable(32) ptr @_ZNK16JfrSamplerWindow6paramsEv(ptr noundef nonnull align 8 dereferenceable(64) %10)
  %12 = getelementptr inbounds %struct.JfrSamplerParams, ptr %11, i32 0, i32 2
  %13 = load i64, ptr %12, align 8
  %14 = call noundef double @_Z30compute_ewma_alpha_coefficientm(i64 noundef %13)
  %15 = load ptr, ptr %4, align 8
  %16 = load double, ptr %15, align 8
  %17 = call noundef double @_Z37exponentially_weighted_moving_averageddd(double noundef %9, double noundef %14, double noundef %16)
  %18 = load ptr, ptr %4, align 8
  store double %17, ptr %18, align 8
  %19 = call noundef zeroext i1 @_ZN7LogImplILN6LogTag4typeE64ELS1_156ELS1_160ELS1_0ELS1_0ELS1_0EE8is_levelEN8LogLevel4typeE(i32 noundef 2)
  br i1 %19, label %21, label %20

20:                                               ; preds = %6
  br label %50

21:                                               ; preds = %6
  %22 = load ptr, ptr %4, align 8
  %23 = load double, ptr %22, align 8
  %24 = load ptr, ptr %3, align 8
  %25 = call noundef nonnull align 8 dereferenceable(32) ptr @_ZNK16JfrSamplerWindow6paramsEv(ptr noundef nonnull align 8 dereferenceable(64) %24)
  %26 = getelementptr inbounds %struct.JfrSamplerParams, ptr %25, i32 0, i32 0
  %27 = load i64, ptr %26, align 8
  %28 = load ptr, ptr %3, align 8
  %29 = call noundef i64 @_ZNK16JfrSamplerWindow11sample_sizeEv(ptr noundef nonnull align 8 dereferenceable(64) %28)
  %30 = load ptr, ptr %3, align 8
  %31 = call noundef i64 @_ZNK16JfrSamplerWindow15population_sizeEv(ptr noundef nonnull align 8 dereferenceable(64) %30)
  %32 = load ptr, ptr %3, align 8
  %33 = call noundef i64 @_ZNK16JfrSamplerWindow15population_sizeEv(ptr noundef nonnull align 8 dereferenceable(64) %32)
  %34 = icmp eq i64 %33, 0
  br i1 %34, label %35, label %36

35:                                               ; preds = %21
  br label %44

36:                                               ; preds = %21
  %37 = load ptr, ptr %3, align 8
  %38 = call noundef i64 @_ZNK16JfrSamplerWindow11sample_sizeEv(ptr noundef nonnull align 8 dereferenceable(64) %37)
  %39 = uitofp i64 %38 to double
  %40 = load ptr, ptr %3, align 8
  %41 = call noundef i64 @_ZNK16JfrSamplerWindow15population_sizeEv(ptr noundef nonnull align 8 dereferenceable(64) %40)
  %42 = uitofp i64 %41 to double
  %43 = fdiv double %39, %42
  br label %44

44:                                               ; preds = %36, %35
  %45 = phi double [ 0.000000e+00, %35 ], [ %43, %36 ]
  %46 = load ptr, ptr %3, align 8
  %47 = call noundef nonnull align 8 dereferenceable(32) ptr @_ZNK16JfrSamplerWindow6paramsEv(ptr noundef nonnull align 8 dereferenceable(64) %46)
  %48 = getelementptr inbounds %struct.JfrSamplerParams, ptr %47, i32 0, i32 1
  %49 = load i64, ptr %48, align 8
  call void (ptr, ...) @_ZN7LogImplILN6LogTag4typeE64ELS1_156ELS1_160ELS1_0ELS1_0ELS1_0EE5writeILN8LogLevel4typeE2EEEvPKcz(ptr noundef @.str, double noundef %23, i64 noundef %27, i64 noundef %29, i64 noundef %31, double noundef %45, i64 noundef %49)
  br label %50

50:                                               ; preds = %44, %20
  br label %51

51:                                               ; preds = %50, %2
  ret void
}

; Function Attrs: mustprogress nounwind uwtable
define hidden noundef nonnull align 8 dereferenceable(32) ptr @_ZN24JfrGTestFixedRateSampler18next_window_paramsEPK16JfrSamplerWindow(ptr noundef nonnull align 8 dereferenceable(120) %0, ptr noundef %1) unnamed_addr #1 align 2 {
  %3 = alloca ptr, align 8
  %4 = alloca ptr, align 8
  store ptr %0, ptr %3, align 8
  store ptr %1, ptr %4, align 8
  %5 = load ptr, ptr %3, align 8
  %6 = load ptr, ptr %4, align 8
  %7 = getelementptr inbounds %class.JfrGTestFixedRateSampler, ptr %5, i32 0, i32 2
  call void @_ZL3logPK16JfrSamplerWindowPd(ptr noundef %6, ptr noundef %7)
  %8 = getelementptr inbounds %class.JfrGTestFixedRateSampler, ptr %5, i32 0, i32 1
  ret ptr %8
}