; Function Attrs: mustprogress nounwind uwtable
define hidden noundef nonnull align 8 dereferenceable(32) ptr @_ZN24JfrGTestFixedRateSampler18next_window_paramsEPK16JfrSamplerWindow(ptr noundef nonnull align 8 dereferenceable(120) %0, ptr noundef %1) unnamed_addr #2 align 2 {
  %3 = load volatile ptr, ptr getelementptr inbounds (i8, ptr @_ZN16LogTagSetMappingILN6LogTag4typeE64ELS1_156ELS1_160ELS1_0ELS1_0ELS1_0EE7_tagsetE, i64 56), align 8
  %.not.i = icmp eq ptr %3, null
  br i1 %.not.i, label %_ZL3logPK16JfrSamplerWindowPd.exit, label %4

4:                                                ; preds = %2
  %5 = getelementptr inbounds i8, ptr %0, i64 112
  %6 = getelementptr inbounds i8, ptr %1, i64 56
  %7 = load volatile i64, ptr %6, align 8
  %8 = getelementptr inbounds i8, ptr %1, i64 48
  %9 = load i64, ptr %8, align 8
  %10 = getelementptr inbounds i8, ptr %1, i64 40
  %11 = load i64, ptr %10, align 8
  %..i.i = tail call i64 @llvm.umin.i64(i64 %7, i64 %9)
  %12 = udiv i64 %..i.i, %11
  %13 = uitofp i64 %12 to double
  %14 = getelementptr inbounds i8, ptr %1, i64 16
  %15 = load i64, ptr %14, align 8
  %16 = icmp ult i64 %15, 2
  %17 = uitofp i64 %15 to double
  %18 = fdiv double 1.000000e+00, %17
  %19 = select i1 %16, double 1.000000e+00, double %18
  %20 = load double, ptr %5, align 8
  %21 = fsub double 1.000000e+00, %19
  %22 = fmul double %20, %21
  %23 = tail call noundef double @llvm.fmuladd.f64(double %19, double %13, double %22)
  store double %23, ptr %5, align 8
  %24 = load volatile ptr, ptr getelementptr inbounds (i8, ptr @_ZN16LogTagSetMappingILN6LogTag4typeE64ELS1_156ELS1_160ELS1_0ELS1_0ELS1_0EE7_tagsetE, i64 56), align 8
  %.not14.i = icmp eq ptr %24, null
  br i1 %.not14.i, label %_ZL3logPK16JfrSamplerWindowPd.exit, label %25

25:                                               ; preds = %4
  %26 = load i64, ptr %1, align 8
  %27 = load volatile i64, ptr %6, align 8
  %28 = load i64, ptr %8, align 8
  %29 = load i64, ptr %10, align 8
  %..i12.i = tail call i64 @llvm.umin.i64(i64 %27, i64 %28)
  %30 = udiv i64 %..i12.i, %29
  %31 = load volatile i64, ptr %6, align 8
  %32 = load volatile i64, ptr %6, align 8
  %33 = icmp eq i64 %32, 0
  br i1 %33, label %41, label %34

34:                                               ; preds = %25
  %35 = load volatile i64, ptr %6, align 8
  %..i13.i = tail call i64 @llvm.umin.i64(i64 %35, i64 %28)
  %36 = udiv i64 %..i13.i, %29
  %37 = uitofp i64 %36 to double
  %38 = load volatile i64, ptr %6, align 8
  %39 = uitofp i64 %38 to double
  %40 = fdiv double %37, %39
  br label %41

41:                                               ; preds = %34, %25
  %42 = phi double [ %40, %34 ], [ 0.000000e+00, %25 ]
  %43 = getelementptr inbounds i8, ptr %1, i64 8
  %44 = load i64, ptr %43, align 8
  tail call void (ptr, ...) @_ZN7LogImplILN6LogTag4typeE64ELS1_156ELS1_160ELS1_0ELS1_0ELS1_0EE5writeILN8LogLevel4typeE2EEEvPKcz(ptr noundef nonnull @.str, double noundef %23, i64 noundef %26, i64 noundef %30, i64 noundef %31, double noundef %42, i64 noundef %44)
  br label %_ZL3logPK16JfrSamplerWindowPd.exit

_ZL3logPK16JfrSamplerWindowPd.exit:               ; preds = %2, %4, %41
  %45 = getelementptr inbounds i8, ptr %0, i64 80
  ret ptr %45
}